; Function Attrs: nounwind uwtable
define dso_local ptr @list_find_first(ptr noundef %0, ptr noundef readonly captures(none) %1, ptr noundef %2) #0 {
  %4 = getelementptr inbounds nuw i8, ptr %0, i64 40
  %5 = tail call i32 @pthread_rwlock_wrlock(ptr noundef nonnull %4) #9
  %.not15.i = icmp eq i32 %5, 0
  br i1 %.not15.i, label %.preheader, label %6

6:                                                ; preds = %3
  %7 = tail call ptr @__errno_location() #10
  store i32 %5, ptr %7, align 4
  tail call void (ptr, ...) @fatal_abort(ptr noundef nonnull @.str.2, ptr noundef nonnull @__func__._list_find_first_lock) #11
  unreachable

.preheader:                                       ; preds = %3, %8
  %.pn.i.i = phi ptr [ %.08.i.i, %8 ], [ %0, %3 ]
  %.08.in.i.i = getelementptr inbounds nuw i8, ptr %.pn.i.i, i64 8
  %.08.i.i = load ptr, ptr %.08.in.i.i, align 8
  %.not.i.i = icmp eq ptr %.08.i.i, null
  br i1 %.not.i.i, label %_list_find_first_locked.exit.i, label %8

8:                                                ; preds = %.preheader
  %9 = load ptr, ptr %.08.i.i, align 8
  %10 = tail call i32 %1(ptr noundef %9, ptr noundef %2) #9
  %.not10.i.i = icmp eq i32 %10, 0
  br i1 %.not10.i.i, label %.preheader, label %11, !llvm.loop !19

11:                                               ; preds = %8
  %12 = load ptr, ptr %.08.i.i, align 8
  br label %_list_find_first_locked.exit.i

_list_find_first_locked.exit.i:                   ; preds = %.preheader, %11
  %spec.select.i.i = phi ptr [ %12, %11 ], [ null, %.preheader ]
  %13 = tail call i32 @pthread_rwlock_unlock(ptr noundef nonnull %4) #9
  %.not16.i = icmp eq i32 %13, 0
  br i1 %.not16.i, label %_list_find_first_lock.exit, label %14

14:                                               ; preds = %_list_find_first_locked.exit.i
  %15 = tail call ptr @__errno_location() #10
  store i32 %13, ptr %15, align 4
  tail call void (ptr, ...) @fatal_abort(ptr noundef nonnull @.str.3, ptr noundef nonnull @__func__._list_find_first_lock) #11
  unreachable

_list_find_first_lock.exit:                       ; preds = %_list_find_first_locked.exit.i
  ret ptr %spec.select.i.i
}